(lp0
V11nvb7
p1
aV11rz9h
p2
aV11ryoz
p3
aV11rs64
p4
aV11rr5n
p5
aV11r06w
p6
aV11qi95
p7
aV11qf5e
p8
aV11pxgy
p9
aV11out8
p10
aV11ooo9
p11
aV11odc1
p12
aV11nofe
p13
aV11m5yj
p14
aV11l9zo
p15
aV11kpze
p16
aV11kpuj
p17
aV11jys3
p18
aV11jik4
p19
aV11iuz4
p20
aV11hdyo
p21
aV11gztp
p22
aV11gxid
p23
aV11ep7q
p24
aV11ek3h
p25
aV11s8xo
p26
a.